target datalayout = "e-m:e-p270:32:32-p271:32:32-p272:64:64-i64:64-i128:128-f80:128-n8:16:32:64-S128"
target triple = "x86_64-pc-linux-gnu"

%struct._zend_executor_globals = type { %struct._zval_struct, %struct._zval_struct, [32 x ptr], ptr, ptr, %struct._zend_array, %struct._zend_array, ptr, i32, i32, ptr, ptr, ptr, ptr, ptr, ptr, i64, ptr, ptr, i32, i32, i64, i32, i32, i32, i8, i8, %struct.zend_atomic_bool_s, %struct.zend_atomic_bool_s, ptr, i64, ptr, ptr, %struct._zend_array, %struct._zend_array, i32, i8, %struct._zval_struct, %struct._zval_struct, %struct._zend_stack, %struct._zend_stack, %struct._zend_stack, ptr, i32, i32, i64, ptr, ptr, ptr, %struct._zend_objects_store, ptr, ptr, ptr, [3 x %struct._zend_op], ptr, i8, i8, i64, i32, i32, ptr, [16 x %struct._HashTableIterator], ptr, %union._zend_function, %struct._zend_op, %struct._zend_array, i64, %struct.zend_get_gc_buffer, ptr, ptr, ptr, i64, i8, i32, ptr, ptr, i64, %struct._zend_call_stack, i64, i64, [6 x ptr] }
%struct.zend_atomic_bool_s = type { i8 }
%struct._zval_struct = type { %union._zend_value, %union.anon.3, %union.anon.6 }
%union._zend_value = type { i64 }
%union.anon.3 = type { i32 }
%union.anon.6 = type { i32 }
%struct._zend_stack = type { i32, i32, i32, ptr }
%struct._zend_objects_store = type { ptr, i32, i32, i32 }
%struct._HashTableIterator = type { ptr, i32, i32 }
%union._zend_function = type { %struct._zend_op_array }
%struct._zend_op_array = type { i8, [3 x i8], i32, ptr, ptr, ptr, i32, i32, ptr, ptr, ptr, ptr, i32, i32, i32, i32, ptr, ptr, ptr, ptr, ptr, i32, i32, ptr, ptr, ptr, i32, i32, i32, i32, ptr, ptr, [6 x ptr] }
%struct._zend_op = type { ptr, %union._znode_op, %union._znode_op, %union._znode_op, i32, i32, i8, i8, i8, i8 }
%union._znode_op = type { i32 }
%struct._zend_array = type { %struct._zend_refcounted_h, %union.anon.0, i32, %union.anon.1, i32, i32, i32, i32, i64, ptr }
%struct._zend_refcounted_h = type { i32, %union.anon }
%union.anon = type { i32 }
%union.anon.0 = type { i32 }
%union.anon.1 = type { ptr }
%struct.zend_get_gc_buffer = type { ptr, ptr, ptr }
%struct._zend_call_stack = type { ptr, i64 }
%struct._spl_SplObjectStorage = type { %struct._zend_array, i64, i32, i64, ptr, %struct._zend_object }
%struct._zend_object = type { %struct._zend_refcounted_h, i32, ptr, ptr, ptr, [1 x %struct._zval_struct] }
%struct._zend_execute_data = type { ptr, ptr, ptr, ptr, %struct._zval_struct, ptr, ptr, ptr, ptr }
%struct._spl_SplObjectStorageElement = type { ptr, %struct._zval_struct }
%struct._zend_class_entry = type { i8, ptr, %union.anon.8, i32, i32, i32, i32, ptr, ptr, ptr, %struct._zend_array, %struct._zend_array, %struct._zend_array, ptr, ptr, ptr, ptr, ptr, ptr, ptr, ptr, ptr, ptr, ptr, ptr, ptr, ptr, ptr, ptr, ptr, ptr, ptr, %union.anon.9, ptr, ptr, ptr, ptr, i32, i32, %union.anon.10, ptr, ptr, ptr, ptr, i32, ptr, ptr, %union.anon.11 }
%union.anon.8 = type { ptr }
%union.anon.9 = type { ptr }
%union.anon.10 = type { ptr }
%union.anon.11 = type { %struct.anon.12 }
%struct.anon.12 = type { ptr, i32, i32 }
%struct._zend_class_iterator_funcs = type { ptr, ptr, ptr, ptr, ptr, ptr }

@executor_globals = external global %struct._zend_executor_globals, align 8

; Function Attrs: nounwind uwtable
define internal ptr @spl_object_storage_from_obj(ptr noundef %0) #0 {
  %2 = alloca ptr, align 8
  store ptr %0, ptr %2, align 8
  %3 = load ptr, ptr %2, align 8
  %4 = getelementptr inbounds i8, ptr %3, i64 -88
  ret ptr %4
}

; Function Attrs: nounwind uwtable
define hidden void @zim_MultipleIterator_valid(ptr noundef %0, ptr noundef %1) #0 {
  %3 = alloca ptr, align 8
  %4 = alloca ptr, align 8
  %5 = alloca ptr, align 8
  %6 = alloca i32, align 4
  %7 = alloca ptr, align 8
  %8 = alloca ptr, align 8
  %9 = alloca ptr, align 8
  %10 = alloca ptr, align 8
  %11 = alloca ptr, align 8
  %12 = alloca ptr, align 8
  %13 = alloca ptr, align 8
  %14 = alloca ptr, align 8
  %15 = alloca ptr, align 8
  %16 = alloca ptr, align 8
  %17 = alloca ptr, align 8
  %18 = alloca ptr, align 8
  %19 = alloca ptr, align 8
  %20 = alloca ptr, align 8
  %21 = alloca ptr, align 8
  %22 = alloca %struct._zval_struct, align 8
  %23 = alloca i64, align 8
  %24 = alloca i64, align 8
  %25 = alloca ptr, align 8
  store ptr %0, ptr %18, align 8
  store ptr %1, ptr %19, align 8
  %26 = load ptr, ptr %18, align 8
  %27 = getelementptr inbounds %struct._zend_execute_data, ptr %26, i32 0, i32 4
  %28 = getelementptr inbounds %struct._zval_struct, ptr %27, i32 0, i32 0
  %29 = load ptr, ptr %28, align 8
  %30 = call ptr @spl_object_storage_from_obj(ptr noundef %29)
  store ptr %30, ptr %20, align 8
  %31 = load ptr, ptr %18, align 8
  %32 = getelementptr inbounds %struct._zend_execute_data, ptr %31, i32 0, i32 4
  %33 = getelementptr inbounds %struct._zval_struct, ptr %32, i32 0, i32 2
  %34 = load i32, ptr %33, align 4
  %35 = icmp eq i32 %34, 0
  %36 = xor i1 %35, true
  %37 = xor i1 %36, true
  %38 = zext i1 %37 to i32
  %39 = sext i32 %38 to i64
  %40 = icmp ne i64 %39, 0
  br i1 %40, label %41, label %42

41:                                               ; preds = %2
  br label %43

42:                                               ; preds = %2
  call void @zend_wrong_parameters_none_error()
  br label %43

43:                                               ; preds = %42, %41
  %44 = phi i32 [ 0, %41 ], [ -1, %42 ]
  %45 = icmp eq i32 %44, -1
  br i1 %45, label %46, label %51

46:                                               ; preds = %43
  br label %47

47:                                               ; preds = %46
  %48 = load ptr, ptr getelementptr inbounds (%struct._zend_executor_globals, ptr @executor_globals, i32 0, i32 50), align 8
  %49 = icmp ne ptr %48, null
  call void @llvm.assume(i1 %49)
  br label %170

50:                                               ; No predecessors!
  br label %51

51:                                               ; preds = %50, %43
  %52 = load ptr, ptr %20, align 8
  %53 = getelementptr inbounds %struct._spl_SplObjectStorage, ptr %52, i32 0, i32 0
  store ptr %53, ptr %17, align 8
  %54 = load ptr, ptr %17, align 8
  %55 = getelementptr inbounds %struct._zend_array, ptr %54, i32 0, i32 5
  %56 = load i32, ptr %55, align 4
  %57 = icmp ne i32 %56, 0
  br i1 %57, label %65, label %58

58:                                               ; preds = %51
  br label %59

59:                                               ; preds = %58
  br label %60

60:                                               ; preds = %59
  %61 = load ptr, ptr %19, align 8
  %62 = getelementptr inbounds %struct._zval_struct, ptr %61, i32 0, i32 1
  store i32 2, ptr %62, align 8
  br label %63

63:                                               ; preds = %60
  br label %170

64:                                               ; No predecessors!
  br label %65

65:                                               ; preds = %64, %51
  %66 = load ptr, ptr %20, align 8
  %67 = getelementptr inbounds %struct._spl_SplObjectStorage, ptr %66, i32 0, i32 3
  %68 = load i64, ptr %67, align 8
  %69 = and i64 %68, 1
  %70 = icmp ne i64 %69, 0
  %71 = select i1 %70, i32 1, i32 0
  %72 = sext i32 %71 to i64
  store i64 %72, ptr %23, align 8
  %73 = load ptr, ptr %20, align 8
  %74 = getelementptr inbounds %struct._spl_SplObjectStorage, ptr %73, i32 0, i32 0
  %75 = load ptr, ptr %20, align 8
  %76 = getelementptr inbounds %struct._spl_SplObjectStorage, ptr %75, i32 0, i32 2
  call void @zend_hash_internal_pointer_reset_ex(ptr noundef %74, ptr noundef %76)
  br label %77

77:                                               ; preds = %155, %65
  %78 = load ptr, ptr %20, align 8
  %79 = getelementptr inbounds %struct._spl_SplObjectStorage, ptr %78, i32 0, i32 0
  %80 = load ptr, ptr %20, align 8
  %81 = getelementptr inbounds %struct._spl_SplObjectStorage, ptr %80, i32 0, i32 2
  store ptr %79, ptr %14, align 8
  store ptr %81, ptr %15, align 8
  %82 = load ptr, ptr %14, align 8
  %83 = load ptr, ptr %15, align 8
  %84 = call ptr @zend_hash_get_current_data_ex(ptr noundef %82, ptr noundef %83) #10
  store ptr %84, ptr %16, align 8
  %85 = load ptr, ptr %16, align 8
  %86 = icmp ne ptr %85, null
  br i1 %86, label %87, label %93

87:                                               ; preds = %77
  %88 = load ptr, ptr %16, align 8
  %89 = load ptr, ptr %88, align 8
  %90 = icmp ne ptr %89, null
  call void @llvm.assume(i1 %90)
  %91 = load ptr, ptr %16, align 8
  %92 = load ptr, ptr %91, align 8
  store ptr %92, ptr %13, align 8
  br label %94

93:                                               ; preds = %77
  store ptr null, ptr %13, align 8
  br label %94

94:                                               ; preds = %93, %87
  %95 = load ptr, ptr %13, align 8
  store ptr %95, ptr %21, align 8
  %96 = icmp ne ptr %95, null
  br i1 %96, label %97, label %101

97:                                               ; preds = %94
  %98 = load ptr, ptr getelementptr inbounds (%struct._zend_executor_globals, ptr @executor_globals, i32 0, i32 50), align 8
  %99 = icmp ne ptr %98, null
  %100 = xor i1 %99, true
  br label %101

101:                                              ; preds = %97, %94
  %102 = phi i1 [ false, %94 ], [ %100, %97 ]
  br i1 %102, label %103, label %161

103:                                              ; preds = %101
  %104 = load ptr, ptr %21, align 8
  %105 = getelementptr inbounds %struct._spl_SplObjectStorageElement, ptr %104, i32 0, i32 0
  %106 = load ptr, ptr %105, align 8
  store ptr %106, ptr %25, align 8
  %107 = load ptr, ptr %25, align 8
  %108 = getelementptr inbounds %struct._zend_object, ptr %107, i32 0, i32 2
  %109 = load ptr, ptr %108, align 8
  %110 = getelementptr inbounds %struct._zend_class_entry, ptr %109, i32 0, i32 30
  %111 = load ptr, ptr %110, align 8
  %112 = getelementptr inbounds %struct._zend_class_iterator_funcs, ptr %111, i32 0, i32 1
  %113 = load ptr, ptr %112, align 8
  %114 = load ptr, ptr %25, align 8
  store ptr %113, ptr %8, align 8
  store ptr %114, ptr %9, align 8
  store ptr %22, ptr %10, align 8
  %115 = load ptr, ptr %8, align 8
  %116 = load ptr, ptr %9, align 8
  %117 = load ptr, ptr %10, align 8
  store ptr %115, ptr %3, align 8
  store ptr %116, ptr %4, align 8
  store ptr %117, ptr %5, align 8
  store i32 0, ptr %6, align 4
  store ptr null, ptr %7, align 8
  %118 = load ptr, ptr %3, align 8
  %119 = load ptr, ptr %4, align 8
  %120 = load ptr, ptr %4, align 8
  %121 = getelementptr inbounds %struct._zend_object, ptr %120, i32 0, i32 2
  %122 = load ptr, ptr %121, align 8
  %123 = load ptr, ptr %5, align 8
  %124 = load i32, ptr %6, align 4
  %125 = load ptr, ptr %7, align 8
  call void @zend_call_known_function(ptr noundef %118, ptr noundef %119, ptr noundef %122, ptr noundef %123, i32 noundef %124, ptr noundef %125, ptr noundef null) #10
  store ptr %22, ptr %11, align 8
  %126 = load ptr, ptr %11, align 8
  %127 = getelementptr inbounds %struct._zval_struct, ptr %126, i32 0, i32 1
  %128 = load i8, ptr %127, align 8
  %129 = zext i8 %128 to i32
  %130 = icmp eq i32 %129, 0
  br i1 %130, label %139, label %131

131:                                              ; preds = %103
  store ptr %22, ptr %12, align 8
  %132 = load ptr, ptr %12, align 8
  %133 = getelementptr inbounds %struct._zval_struct, ptr %132, i32 0, i32 1
  %134 = load i8, ptr %133, align 8
  %135 = zext i8 %134 to i32
  %136 = icmp eq i32 %135, 3
  %137 = zext i1 %136 to i32
  %138 = sext i32 %137 to i64
  store i64 %138, ptr %24, align 8
  call void @zval_ptr_dtor(ptr noundef %22)
  br label %140

139:                                              ; preds = %103
  store i64 0, ptr %24, align 8
  br label %140

140:                                              ; preds = %139, %131
  %141 = load i64, ptr %23, align 8
  %142 = load i64, ptr %24, align 8
  %143 = icmp ne i64 %141, %142
  br i1 %143, label %144, label %155

144:                                              ; preds = %140
  br label %145

145:                                              ; preds = %144
  br label %146

146:                                              ; preds = %145
  %147 = load i64, ptr %23, align 8
  %148 = icmp ne i64 %147, 0
  %149 = xor i1 %148, true
  %150 = select i1 %149, i32 3, i32 2
  %151 = load ptr, ptr %19, align 8
  %152 = getelementptr inbounds %struct._zval_struct, ptr %151, i32 0, i32 1
  store i32 %150, ptr %152, align 8
  br label %153

153:                                              ; preds = %146
  br label %170

154:                                              ; No predecessors!
  br label %155

155:                                              ; preds = %154, %140
  %156 = load ptr, ptr %20, align 8
  %157 = getelementptr inbounds %struct._spl_SplObjectStorage, ptr %156, i32 0, i32 0
  %158 = load ptr, ptr %20, align 8
  %159 = getelementptr inbounds %struct._spl_SplObjectStorage, ptr %158, i32 0, i32 2
  %160 = call i32 @zend_hash_move_forward_ex(ptr noundef %157, ptr noundef %159)
  br label %77

161:                                              ; preds = %101
  br label %162

162:                                              ; preds = %161
  br label %163

163:                                              ; preds = %162
  %164 = load i64, ptr %23, align 8
  %165 = icmp ne i64 %164, 0
  %166 = select i1 %165, i32 3, i32 2
  %167 = load ptr, ptr %19, align 8
  %168 = getelementptr inbounds %struct._zval_struct, ptr %167, i32 0, i32 1
  store i32 %166, ptr %168, align 8
  br label %169

169:                                              ; preds = %163
  br label %170

170:                                              ; preds = %169, %153, %63, %47
  ret void
}