; Function Attrs: nounwind uwtable
define hidden void @zim_MultipleIterator_valid(ptr nocapture noundef readonly %0, ptr nocapture noundef writeonly %1) #0 {
  %3 = alloca %struct._zval_struct, align 8
  %4 = getelementptr inbounds i8, ptr %0, i64 32
  %5 = load ptr, ptr %4, align 8
  %6 = getelementptr inbounds i8, ptr %5, i64 -88
  %7 = getelementptr inbounds i8, ptr %0, i64 44
  %8 = load i32, ptr %7, align 4
  %.not = icmp eq i32 %8, 0
  br i1 %.not, label %.critedge, label %9

9:                                                ; preds = %2
  tail call void @zend_wrong_parameters_none_error() #10
  %10 = load ptr, ptr getelementptr inbounds (%struct._zend_executor_globals, ptr @executor_globals, i64 0, i32 50), align 8
  %11 = icmp ne ptr %10, null
  tail call void @llvm.assume(i1 %11)
  br label %49

.critedge:                                        ; preds = %2
  %12 = getelementptr inbounds i8, ptr %5, i64 -60
  %13 = load i32, ptr %12, align 4
  %.not40 = icmp eq i32 %13, 0
  br i1 %.not40, label %14, label %16

14:                                               ; preds = %.critedge
  %15 = getelementptr inbounds i8, ptr %1, i64 8
  store i32 2, ptr %15, align 8
  br label %49

16:                                               ; preds = %.critedge
  %17 = getelementptr inbounds i8, ptr %5, i64 -16
  %18 = load i64, ptr %17, align 8
  %19 = and i64 %18, 1
  %.not41.not = icmp eq i64 %19, 0
  %20 = getelementptr inbounds i8, ptr %5, i64 -24
  tail call void @zend_hash_internal_pointer_reset_ex(ptr noundef nonnull %6, ptr noundef nonnull %20) #10
  %21 = tail call ptr @zend_hash_get_current_data_ex(ptr noundef nonnull %6, ptr noundef nonnull %20) #10
  %.not4247 = icmp ne ptr %21, null
  %22 = load ptr, ptr getelementptr inbounds (%struct._zend_executor_globals, ptr @executor_globals, i64 0, i32 50), align 8
  %.not4348 = icmp eq ptr %22, null
  %or.cond49 = select i1 %.not4247, i1 %.not4348, i1 false
  br i1 %or.cond49, label %.lr.ph, label %.thread

.lr.ph:                                           ; preds = %16
  %23 = getelementptr inbounds i8, ptr %3, i64 8
  br label %24

24:                                               ; preds = %.lr.ph, %43
  %25 = phi ptr [ %21, %.lr.ph ], [ %45, %43 ]
  %26 = load ptr, ptr %25, align 8, !nonnull !4, !noundef !4
  %27 = load ptr, ptr %26, align 8
  %28 = getelementptr inbounds i8, ptr %27, i64 16
  %29 = load ptr, ptr %28, align 8
  %30 = getelementptr inbounds i8, ptr %29, i64 368
  %31 = load ptr, ptr %30, align 8
  %32 = getelementptr inbounds i8, ptr %31, i64 8
  %33 = load ptr, ptr %32, align 8
  call void @zend_call_known_function(ptr noundef %33, ptr noundef %27, ptr noundef %29, ptr noundef nonnull %3, i32 noundef 0, ptr noundef null, ptr noundef null) #10
  %34 = load i8, ptr %23, align 8
  %35 = icmp eq i8 %34, 0
  br i1 %35, label %39, label %36

36:                                               ; preds = %24
  %37 = icmp eq i8 %34, 3
  %38 = zext i1 %37 to i64
  call void @zval_ptr_dtor(ptr noundef nonnull %3) #10
  br label %39

39:                                               ; preds = %24, %36
  %.037 = phi i64 [ %38, %36 ], [ 0, %24 ]
  %.not44 = icmp eq i64 %19, %.037
  br i1 %.not44, label %43, label %40

40:                                               ; preds = %39
  %41 = select i1 %.not41.not, i32 3, i32 2
  %42 = getelementptr inbounds i8, ptr %1, i64 8
  store i32 %41, ptr %42, align 8
  br label %49

43:                                               ; preds = %39
  %44 = call i32 @zend_hash_move_forward_ex(ptr noundef nonnull %6, ptr noundef nonnull %20) #10
  %45 = call ptr @zend_hash_get_current_data_ex(ptr noundef nonnull %6, ptr noundef nonnull %20) #10
  %.not42 = icmp ne ptr %45, null
  %46 = load ptr, ptr getelementptr inbounds (%struct._zend_executor_globals, ptr @executor_globals, i64 0, i32 50), align 8
  %.not43 = icmp eq ptr %46, null
  %or.cond = select i1 %.not42, i1 %.not43, i1 false
  br i1 %or.cond, label %24, label %.thread

.thread:                                          ; preds = %43, %16
  %47 = select i1 %.not41.not, i32 2, i32 3
  %48 = getelementptr inbounds i8, ptr %1, i64 8
  store i32 %47, ptr %48, align 8
  br label %49

49:                                               ; preds = %.thread, %40, %14, %9
  ret void
}